target datalayout = "e-m:e-p270:32:32-p271:32:32-p272:64:64-i64:64-i128:128-f80:128-n8:16:32:64-S128"
target triple = "x86_64-pc-linux-gnu"

%"class.open3d::core::Device" = type { i32, i32 }
%"class.open3d::core::Tensor" = type { %"class.open3d::core::IsDevice", %"class.open3d::core::SizeVector", %"class.open3d::core::SizeVector", ptr, %"class.open3d::core::Dtype", %"class.std::shared_ptr" }
%"class.open3d::core::IsDevice" = type { ptr }
%"class.open3d::core::SizeVector" = type { %"class.open3d::core::SmallVector" }
%"class.open3d::core::SmallVector" = type { %"class.open3d::core::SmallVectorImpl", %"struct.open3d::core::SmallVectorStorage" }
%"class.open3d::core::SmallVectorImpl" = type { %"class.open3d::core::SmallVectorTemplateBase" }
%"class.open3d::core::SmallVectorTemplateBase" = type { %"class.open3d::core::SmallVectorTemplateCommon" }
%"class.open3d::core::SmallVectorTemplateCommon" = type { %"class.open3d::core::SmallVectorBase" }
%"class.open3d::core::SmallVectorBase" = type { ptr, i32, i32 }
%"struct.open3d::core::SmallVectorStorage" = type { [32 x i8] }
%"class.open3d::core::Dtype" = type { i32, i64, [16 x i8] }
%"class.std::shared_ptr" = type { %"class.std::__shared_ptr" }
%"class.std::__shared_ptr" = type { ptr, %"class.std::__shared_count" }
%"class.std::__shared_count" = type { ptr }

@.str = private unnamed_addr constant [130 x i8] c"generated/home/dtcxzyw/WorkSpace/Projects/compilers/llvm-opt-benchmark/bench/open3d/Open3D/cpp/open3d/core/kernel/IndexGetSet.cpp\00", align 1
@.str.3 = private unnamed_addr constant [31 x i8] c"IndexSet: Unimplemented device\00", align 1

; Function Attrs: inlinehint mustprogress nounwind ssp uwtable
define linkonce_odr hidden noundef i32 @_ZNK6open3d4core6Device7GetTypeEv(ptr noundef nonnull align 4 dereferenceable(8) %0) #4 comdat align 2 {
  %2 = alloca ptr, align 8
  store ptr %0, ptr %2, align 8, !tbaa !21
  %3 = load ptr, ptr %2, align 8
  %4 = getelementptr inbounds nuw %"class.open3d::core::Device", ptr %3, i32 0, i32 0
  %5 = load i32, ptr %4, align 4, !tbaa !129
  ret i32 %5
}

; Function Attrs: inlinehint mustprogress ssp uwtable
define linkonce_odr hidden noundef zeroext i1 @_ZNK6open3d4core8IsDevice6IsCUDAEv(ptr noundef nonnull align 8 dereferenceable(8) %0) #3 comdat align 2 {
  %2 = alloca ptr, align 8
  %3 = alloca %"class.open3d::core::Device", align 4
  store ptr %0, ptr %2, align 8, !tbaa !42
  %4 = load ptr, ptr %2, align 8
  call void @llvm.lifetime.start.p0(i64 8, ptr %3) #20
  %5 = load ptr, ptr %4, align 8, !tbaa !13
  %6 = getelementptr inbounds ptr, ptr %5, i64 2
  %7 = load ptr, ptr %6, align 8
  %8 = call i64 %7(ptr noundef nonnull align 8 dereferenceable(8) %4)
  store i64 %8, ptr %3, align 4
  %9 = call noundef i32 @_ZNK6open3d4core6Device7GetTypeEv(ptr noundef nonnull align 4 dereferenceable(8) %3)
  %10 = icmp eq i32 %9, 1
  call void @llvm.lifetime.end.p0(i64 8, ptr %3) #20
  ret i1 %10
}

; Function Attrs: inlinehint mustprogress ssp uwtable
define linkonce_odr hidden noundef zeroext i1 @_ZNK6open3d4core8IsDevice6IsSYCLEv(ptr noundef nonnull align 8 dereferenceable(8) %0) #3 comdat align 2 {
  %2 = alloca ptr, align 8
  %3 = alloca %"class.open3d::core::Device", align 4
  store ptr %0, ptr %2, align 8, !tbaa !42
  %4 = load ptr, ptr %2, align 8
  call void @llvm.lifetime.start.p0(i64 8, ptr %3) #20
  %5 = load ptr, ptr %4, align 8, !tbaa !13
  %6 = getelementptr inbounds ptr, ptr %5, i64 2
  %7 = load ptr, ptr %6, align 8
  %8 = call i64 %7(ptr noundef nonnull align 8 dereferenceable(8) %4)
  store i64 %8, ptr %3, align 4
  %9 = call noundef i32 @_ZNK6open3d4core6Device7GetTypeEv(ptr noundef nonnull align 4 dereferenceable(8) %3)
  %10 = icmp eq i32 %9, 2
  call void @llvm.lifetime.end.p0(i64 8, ptr %3) #20
  ret i1 %10
}

; Function Attrs: inlinehint mustprogress ssp uwtable
define linkonce_odr hidden noundef zeroext i1 @_ZNK6open3d4core8IsDevice5IsCPUEv(ptr noundef nonnull align 8 dereferenceable(8) %0) #3 comdat align 2 {
  %2 = alloca ptr, align 8
  %3 = alloca %"class.open3d::core::Device", align 4
  store ptr %0, ptr %2, align 8, !tbaa !42
  %4 = load ptr, ptr %2, align 8
  call void @llvm.lifetime.start.p0(i64 8, ptr %3) #20
  %5 = load ptr, ptr %4, align 8, !tbaa !13
  %6 = getelementptr inbounds ptr, ptr %5, i64 2
  %7 = load ptr, ptr %6, align 8
  %8 = call i64 %7(ptr noundef nonnull align 8 dereferenceable(8) %4)
  store i64 %8, ptr %3, align 4
  %9 = call noundef i32 @_ZNK6open3d4core6Device7GetTypeEv(ptr noundef nonnull align 4 dereferenceable(8) %3)
  %10 = icmp eq i32 %9, 0
  call void @llvm.lifetime.end.p0(i64 8, ptr %3) #20
  ret i1 %10
}

; Function Attrs: mustprogress ssp uwtable
define hidden void @_ZN6open3d4core6kernel8IndexSetERKNS0_6TensorERS2_RKSt6vectorIS2_SaIS2_EERKNS0_10SizeVectorESD_(ptr noundef nonnull align 8 dereferenceable(160) %0, ptr noundef nonnull align 8 dereferenceable(160) %1, ptr noundef nonnull align 8 dereferenceable(24) %2, ptr noundef nonnull align 8 dereferenceable(48) %3, ptr noundef nonnull align 8 dereferenceable(48) %4) #0 personality ptr @__gxx_personality_v0 {
  %6 = alloca ptr, align 8
  %7 = alloca ptr, align 8
  %8 = alloca ptr, align 8
  %9 = alloca ptr, align 8
  %10 = alloca ptr, align 8
  %11 = alloca %"class.open3d::core::Tensor", align 8
  %12 = alloca %"class.open3d::core::Device", align 4
  %13 = alloca ptr, align 8
  %14 = alloca i32, align 4
  store ptr %0, ptr %6, align 8, !tbaa !4
  store ptr %1, ptr %7, align 8, !tbaa !4
  store ptr %2, ptr %8, align 8, !tbaa !9
  store ptr %3, ptr %9, align 8, !tbaa !11
  store ptr %4, ptr %10, align 8, !tbaa !11
  call void @llvm.lifetime.start.p0(i64 160, ptr %11) #20
  %15 = load ptr, ptr %6, align 8, !tbaa !4
  call void @llvm.lifetime.start.p0(i64 8, ptr %12) #20
  %16 = load ptr, ptr %7, align 8, !tbaa !4
  %17 = load ptr, ptr %16, align 8, !tbaa !13
  %18 = getelementptr inbounds ptr, ptr %17, i64 2
  %19 = load ptr, ptr %18, align 8
  %20 = call i64 %19(ptr noundef nonnull align 8 dereferenceable(160) %16)
  store i64 %20, ptr %12, align 4
  call void @_ZNK6open3d4core6Tensor2ToERKNS0_6DeviceEb(ptr dead_on_unwind writable sret(%"class.open3d::core::Tensor") align 8 %11, ptr noundef nonnull align 8 dereferenceable(160) %15, ptr noundef nonnull align 4 dereferenceable(8) %12, i1 noundef zeroext false)
  call void @llvm.lifetime.end.p0(i64 8, ptr %12) #20
  %21 = load ptr, ptr %7, align 8, !tbaa !4
  %22 = invoke noundef zeroext i1 @_ZNK6open3d4core8IsDevice5IsCPUEv(ptr noundef nonnull align 8 dereferenceable(8) %21)
          to label %23 unwind label %30

23:                                               ; preds = %5
  br i1 %22, label %24, label %34

24:                                               ; preds = %23
  %25 = load ptr, ptr %7, align 8, !tbaa !4
  %26 = load ptr, ptr %8, align 8, !tbaa !9
  %27 = load ptr, ptr %9, align 8, !tbaa !11
  %28 = load ptr, ptr %10, align 8, !tbaa !11
  invoke void @_ZN6open3d4core6kernel11IndexSetCPUERKNS0_6TensorERS2_RKSt6vectorIS2_SaIS2_EERKNS0_10SizeVectorESD_(ptr noundef nonnull align 8 dereferenceable(160) %11, ptr noundef nonnull align 8 dereferenceable(160) %25, ptr noundef nonnull align 8 dereferenceable(24) %26, ptr noundef nonnull align 8 dereferenceable(48) %27, ptr noundef nonnull align 8 dereferenceable(48) %28)
          to label %29 unwind label %30

29:                                               ; preds = %24
  br label %48

30:                                               ; preds = %44, %39, %34, %24, %5
  %31 = landingpad { ptr, i32 }
          cleanup
  %32 = extractvalue { ptr, i32 } %31, 0
  store ptr %32, ptr %13, align 8
  %33 = extractvalue { ptr, i32 } %31, 1
  store i32 %33, ptr %14, align 4
  call void @_ZN6open3d4core6TensorD2Ev(ptr noundef nonnull align 8 dereferenceable(160) %11) #20
  call void @llvm.lifetime.end.p0(i64 160, ptr %11) #20
  br label %49

34:                                               ; preds = %23
  %35 = load ptr, ptr %7, align 8, !tbaa !4
  %36 = invoke noundef zeroext i1 @_ZNK6open3d4core8IsDevice6IsSYCLEv(ptr noundef nonnull align 8 dereferenceable(8) %35)
          to label %37 unwind label %30

37:                                               ; preds = %34
  br i1 %36, label %38, label %39

38:                                               ; preds = %37
  br label %47

39:                                               ; preds = %37
  %40 = load ptr, ptr %7, align 8, !tbaa !4
  %41 = invoke noundef zeroext i1 @_ZNK6open3d4core8IsDevice6IsCUDAEv(ptr noundef nonnull align 8 dereferenceable(8) %40)
          to label %42 unwind label %30

42:                                               ; preds = %39
  br i1 %41, label %43, label %44

43:                                               ; preds = %42
  br label %46

44:                                               ; preds = %42
  invoke void @_ZN6open3d7utility6Logger9LogError_IJEEEvPKciS4_S4_DpOT_(ptr noundef @.str, i32 noundef 74, ptr noundef @__PRETTY_FUNCTION__._ZN6open3d4core6kernel8IndexSetERKNS0_6TensorERS2_RKSt6vectorIS2_SaIS2_EERKNS0_10SizeVectorESD_, ptr noundef @.str.3) #21
          to label %45 unwind label %30

45:                                               ; preds = %44
  unreachable

46:                                               ; preds = %43
  br label %47

47:                                               ; preds = %46, %38
  br label %48

48:                                               ; preds = %47, %29
  call void @_ZN6open3d4core6TensorD2Ev(ptr noundef nonnull align 8 dereferenceable(160) %11) #20
  call void @llvm.lifetime.end.p0(i64 160, ptr %11) #20
  ret void

49:                                               ; preds = %30
  %50 = load ptr, ptr %13, align 8
  %51 = load i32, ptr %14, align 4
  %52 = insertvalue { ptr, i32 } poison, ptr %50, 0
  %53 = insertvalue { ptr, i32 } %52, i32 %51, 1
  resume { ptr, i32 } %53
}