; Function Attrs: mustprogress ssp uwtable
define hidden void @_ZN6open3d4core6kernel8IndexSetERKNS0_6TensorERS2_RKSt6vectorIS2_SaIS2_EERKNS0_10SizeVectorESD_(ptr noundef nonnull align 8 dereferenceable(160) %0, ptr noundef nonnull align 8 dereferenceable(160) %1, ptr noundef nonnull align 8 dereferenceable(24) %2, ptr noundef nonnull align 8 dereferenceable(48) %3, ptr noundef nonnull align 8 dereferenceable(48) %4) local_unnamed_addr #0 personality ptr @__gxx_personality_v0 {
  %6 = alloca %"class.open3d::core::Tensor", align 8
  %7 = alloca %"class.open3d::core::Device", align 8
  call void @llvm.lifetime.start.p0(i64 160, ptr nonnull %6) #19
  call void @llvm.lifetime.start.p0(i64 8, ptr nonnull %7) #19
  %8 = load ptr, ptr %1, align 8, !tbaa !4
  %9 = getelementptr inbounds nuw i8, ptr %8, i64 16
  %10 = load ptr, ptr %9, align 8
  %11 = tail call i64 %10(ptr noundef nonnull align 8 dereferenceable(160) %1)
  store i64 %11, ptr %7, align 8
  call void @_ZNK6open3d4core6Tensor2ToERKNS0_6DeviceEb(ptr dead_on_unwind nonnull writable sret(%"class.open3d::core::Tensor") align 8 %6, ptr noundef nonnull align 8 dereferenceable(160) %0, ptr noundef nonnull align 4 dereferenceable(8) %7, i1 noundef zeroext false)
  call void @llvm.lifetime.end.p0(i64 8, ptr nonnull %7) #19
  %12 = load ptr, ptr %1, align 8, !tbaa !4
  %13 = getelementptr inbounds nuw i8, ptr %12, i64 16
  %14 = load ptr, ptr %13, align 8
  %15 = invoke i64 %14(ptr noundef nonnull align 8 dereferenceable(8) %1)
          to label %16 unwind label %20

16:                                               ; preds = %5
  %17 = and i64 %15, 4294967295
  %18 = icmp eq i64 %17, 0
  br i1 %18, label %19, label %22

19:                                               ; preds = %16
  invoke void @_ZN6open3d4core6kernel11IndexSetCPUERKNS0_6TensorERS2_RKSt6vectorIS2_SaIS2_EERKNS0_10SizeVectorESD_(ptr noundef nonnull align 8 dereferenceable(160) %6, ptr noundef nonnull align 8 dereferenceable(160) %1, ptr noundef nonnull align 8 dereferenceable(24) %2, ptr noundef nonnull align 8 dereferenceable(48) %3, ptr noundef nonnull align 8 dereferenceable(48) %4)
          to label %40 unwind label %20

20:                                               ; preds = %30, %22, %5, %38, %19
  %21 = landingpad { ptr, i32 }
          cleanup
  call void @_ZN6open3d4core6TensorD2Ev(ptr noundef nonnull align 8 dereferenceable(160) %6) #19
  call void @llvm.lifetime.end.p0(i64 160, ptr nonnull %6) #19
  resume { ptr, i32 } %21

22:                                               ; preds = %16
  %23 = load ptr, ptr %1, align 8, !tbaa !4
  %24 = getelementptr inbounds nuw i8, ptr %23, i64 16
  %25 = load ptr, ptr %24, align 8
  %26 = invoke i64 %25(ptr noundef nonnull align 8 dereferenceable(8) %1)
          to label %27 unwind label %20

27:                                               ; preds = %22
  %28 = and i64 %26, 4294967295
  %29 = icmp eq i64 %28, 2
  br i1 %29, label %40, label %30

30:                                               ; preds = %27
  %31 = load ptr, ptr %1, align 8, !tbaa !4
  %32 = getelementptr inbounds nuw i8, ptr %31, i64 16
  %33 = load ptr, ptr %32, align 8
  %34 = invoke i64 %33(ptr noundef nonnull align 8 dereferenceable(8) %1)
          to label %35 unwind label %20

35:                                               ; preds = %30
  %36 = and i64 %34, 4294967295
  %37 = icmp eq i64 %36, 1
  br i1 %37, label %40, label %38

38:                                               ; preds = %35
  invoke void @_ZN6open3d7utility6Logger9LogError_IJEEEvPKciS4_S4_DpOT_(ptr noundef nonnull @.str, i32 noundef 74, ptr noundef nonnull @__PRETTY_FUNCTION__._ZN6open3d4core6kernel8IndexSetERKNS0_6TensorERS2_RKSt6vectorIS2_SaIS2_EERKNS0_10SizeVectorESD_, ptr noundef nonnull @.str.3) #20
          to label %39 unwind label %20

39:                                               ; preds = %38
  unreachable

40:                                               ; preds = %27, %35, %19
  store ptr getelementptr inbounds nuw inrange(-16, 24) (i8, ptr @_ZTVN6open3d4core6TensorE, i64 16), ptr %6, align 8, !tbaa !4
  %41 = getelementptr inbounds nuw i8, ptr %6, i64 152
  %42 = load ptr, ptr %41, align 8, !tbaa !18
  %.not.i.i.i = icmp eq ptr %42, null
  br i1 %.not.i.i.i, label %_ZNSt12__shared_ptrIN6open3d4core4BlobELN9__gnu_cxx12_Lock_policyE2EED2Ev.exit.i, label %43

43:                                               ; preds = %40
  %44 = getelementptr inbounds nuw i8, ptr %42, i64 8
  %45 = load atomic i64, ptr %44 acquire, align 8
  %46 = icmp eq i64 %45, 4294967297
  %47 = trunc i64 %45 to i32
  br i1 %46, label %48, label %56

48:                                               ; preds = %43
  store i32 0, ptr %44, align 8, !tbaa !21
  %49 = getelementptr inbounds nuw i8, ptr %42, i64 12
  store i32 0, ptr %49, align 4, !tbaa !23
  %50 = load ptr, ptr %42, align 8, !tbaa !4
  %51 = getelementptr inbounds nuw i8, ptr %50, i64 16
  %52 = load ptr, ptr %51, align 8
  call void %52(ptr noundef nonnull align 8 dereferenceable(16) %42) #19
  %53 = load ptr, ptr %42, align 8, !tbaa !4
  %54 = getelementptr inbounds nuw i8, ptr %53, i64 24
  %55 = load ptr, ptr %54, align 8
  call void %55(ptr noundef nonnull align 8 dereferenceable(16) %42) #19
  br label %_ZNSt12__shared_ptrIN6open3d4core4BlobELN9__gnu_cxx12_Lock_policyE2EED2Ev.exit.i

56:                                               ; preds = %43
  %57 = load i8, ptr @__libc_single_threaded, align 1, !tbaa !13
  %.not.i.i.i.i = icmp eq i8 %57, 0
  br i1 %.not.i.i.i.i, label %60, label %58

58:                                               ; preds = %56
  %59 = add nsw i32 %47, -1
  store i32 %59, ptr %44, align 4, !tbaa !24
  br label %_ZN9__gnu_cxx27__exchange_and_add_dispatchEPii.exit.i.i.i.i

60:                                               ; preds = %56
  %61 = atomicrmw volatile add ptr %44, i32 -1 acq_rel, align 4
  br label %_ZN9__gnu_cxx27__exchange_and_add_dispatchEPii.exit.i.i.i.i

_ZN9__gnu_cxx27__exchange_and_add_dispatchEPii.exit.i.i.i.i: ; preds = %60, %58
  %.0.i.i.i.i.i = phi i32 [ %47, %58 ], [ %61, %60 ]
  %62 = icmp eq i32 %.0.i.i.i.i.i, 1
  br i1 %62, label %63, label %_ZNSt12__shared_ptrIN6open3d4core4BlobELN9__gnu_cxx12_Lock_policyE2EED2Ev.exit.i, !prof !25

63:                                               ; preds = %_ZN9__gnu_cxx27__exchange_and_add_dispatchEPii.exit.i.i.i.i
  call void @_ZNSt16_Sp_counted_baseILN9__gnu_cxx12_Lock_policyE2EE24_M_release_last_use_coldEv(ptr noundef nonnull align 8 dereferenceable(16) %42) #19
  br label %_ZNSt12__shared_ptrIN6open3d4core4BlobELN9__gnu_cxx12_Lock_policyE2EED2Ev.exit.i

_ZNSt12__shared_ptrIN6open3d4core4BlobELN9__gnu_cxx12_Lock_policyE2EED2Ev.exit.i: ; preds = %63, %_ZN9__gnu_cxx27__exchange_and_add_dispatchEPii.exit.i.i.i.i, %48, %40
  %64 = getelementptr inbounds nuw i8, ptr %6, i64 56
  %65 = load ptr, ptr %64, align 8, !tbaa !14
  %66 = getelementptr inbounds nuw i8, ptr %6, i64 72
  %67 = icmp eq ptr %65, %66
  br i1 %67, label %_ZN6open3d4core11SmallVectorIlLj4EED2Ev.exit.i, label %68

68:                                               ; preds = %_ZNSt12__shared_ptrIN6open3d4core4BlobELN9__gnu_cxx12_Lock_policyE2EED2Ev.exit.i
  call void @free(ptr noundef %65) #19
  br label %_ZN6open3d4core11SmallVectorIlLj4EED2Ev.exit.i

_ZN6open3d4core11SmallVectorIlLj4EED2Ev.exit.i:   ; preds = %68, %_ZNSt12__shared_ptrIN6open3d4core4BlobELN9__gnu_cxx12_Lock_policyE2EED2Ev.exit.i
  %69 = getelementptr inbounds nuw i8, ptr %6, i64 8
  %70 = load ptr, ptr %69, align 8, !tbaa !14
  %71 = getelementptr inbounds nuw i8, ptr %6, i64 24
  %72 = icmp eq ptr %70, %71
  br i1 %72, label %_ZN6open3d4core6TensorD2Ev.exit, label %73

73:                                               ; preds = %_ZN6open3d4core11SmallVectorIlLj4EED2Ev.exit.i
  call void @free(ptr noundef %70) #19
  br label %_ZN6open3d4core6TensorD2Ev.exit

_ZN6open3d4core6TensorD2Ev.exit:                  ; preds = %_ZN6open3d4core11SmallVectorIlLj4EED2Ev.exit.i, %73
  call void @llvm.lifetime.end.p0(i64 160, ptr nonnull %6) #19
  ret void
}